target datalayout = "e-m:e-p270:32:32-p271:32:32-p272:64:64-i64:64-i128:128-f80:128-n8:16:32:64-S128"
target triple = "x86_64-pc-linux-gnu"

%struct.Kit_DsdObj_t_ = type { i32, [0 x i16] }
%struct.Kit_DsdNtk_t_ = type { i16, i16, i16, i16, ptr, ptr, ptr }
%struct.Vec_Int_t_ = type { i32, i32, ptr }

; Function Attrs: inlinehint nounwind uwtable
define internal ptr @Kit_DsdNtkObj(ptr noundef %0, i32 noundef %1) #2 {
  %3 = alloca ptr, align 8
  %4 = alloca i32, align 4
  store ptr %0, ptr %3, align 8, !tbaa !21
  store i32 %1, ptr %4, align 4, !tbaa !10
  %5 = load i32, ptr %4, align 4, !tbaa !10
  %6 = load ptr, ptr %3, align 8, !tbaa !21
  %7 = getelementptr inbounds nuw %struct.Kit_DsdNtk_t_, ptr %6, i32 0, i32 0
  %8 = load i16, ptr %7, align 8, !tbaa !33
  %9 = zext i16 %8 to i32
  %10 = icmp slt i32 %5, %9
  br i1 %10, label %11, label %12

11:                                               ; preds = %2
  br label %25

12:                                               ; preds = %2
  %13 = load ptr, ptr %3, align 8, !tbaa !21
  %14 = getelementptr inbounds nuw %struct.Kit_DsdNtk_t_, ptr %13, i32 0, i32 6
  %15 = load ptr, ptr %14, align 8, !tbaa !36
  %16 = load i32, ptr %4, align 4, !tbaa !10
  %17 = load ptr, ptr %3, align 8, !tbaa !21
  %18 = getelementptr inbounds nuw %struct.Kit_DsdNtk_t_, ptr %17, i32 0, i32 0
  %19 = load i16, ptr %18, align 8, !tbaa !33
  %20 = zext i16 %19 to i32
  %21 = sub nsw i32 %16, %20
  %22 = sext i32 %21 to i64
  %23 = getelementptr inbounds ptr, ptr %15, i64 %22
  %24 = load ptr, ptr %23, align 8, !tbaa !25
  br label %25

25:                                               ; preds = %12, %11
  %26 = phi ptr [ null, %11 ], [ %24, %12 ]
  ret ptr %26
}

; Function Attrs: inlinehint nounwind uwtable
define internal void @Vec_IntGrow(ptr noundef %0, i32 noundef %1) #2 {
  %3 = alloca ptr, align 8
  %4 = alloca i32, align 4
  store ptr %0, ptr %3, align 8, !tbaa !23
  store i32 %1, ptr %4, align 4, !tbaa !10
  %5 = load ptr, ptr %3, align 8, !tbaa !23
  %6 = getelementptr inbounds nuw %struct.Vec_Int_t_, ptr %5, i32 0, i32 0
  %7 = load i32, ptr %6, align 8, !tbaa !39
  %8 = load i32, ptr %4, align 4, !tbaa !10
  %9 = icmp sge i32 %7, %8
  br i1 %9, label %10, label %11

10:                                               ; preds = %2
  br label %36

11:                                               ; preds = %2
  %12 = load ptr, ptr %3, align 8, !tbaa !23
  %13 = getelementptr inbounds nuw %struct.Vec_Int_t_, ptr %12, i32 0, i32 2
  %14 = load ptr, ptr %13, align 8, !tbaa !40
  %15 = icmp ne ptr %14, null
  br i1 %15, label %16, label %24

16:                                               ; preds = %11
  %17 = load ptr, ptr %3, align 8, !tbaa !23
  %18 = getelementptr inbounds nuw %struct.Vec_Int_t_, ptr %17, i32 0, i32 2
  %19 = load ptr, ptr %18, align 8, !tbaa !40
  %20 = load i32, ptr %4, align 4, !tbaa !10
  %21 = sext i32 %20 to i64
  %22 = mul i64 4, %21
  %23 = call ptr @realloc(ptr noundef %19, i64 noundef %22) #10
  br label %29

24:                                               ; preds = %11
  %25 = load i32, ptr %4, align 4, !tbaa !10
  %26 = sext i32 %25 to i64
  %27 = mul i64 4, %26
  %28 = call noalias ptr @malloc(i64 noundef %27) #9
  br label %29

29:                                               ; preds = %24, %16
  %30 = phi ptr [ %23, %16 ], [ %28, %24 ]
  %31 = load ptr, ptr %3, align 8, !tbaa !23
  %32 = getelementptr inbounds nuw %struct.Vec_Int_t_, ptr %31, i32 0, i32 2
  store ptr %30, ptr %32, align 8, !tbaa !40
  %33 = load i32, ptr %4, align 4, !tbaa !10
  %34 = load ptr, ptr %3, align 8, !tbaa !23
  %35 = getelementptr inbounds nuw %struct.Vec_Int_t_, ptr %34, i32 0, i32 0
  store i32 %33, ptr %35, align 8, !tbaa !39
  br label %36

36:                                               ; preds = %29, %10
  ret void
}

; Function Attrs: inlinehint nounwind uwtable
define internal void @Vec_IntWriteEntry(ptr noundef %0, i32 noundef %1, i32 noundef %2) #2 {
  %4 = alloca ptr, align 8
  %5 = alloca i32, align 4
  %6 = alloca i32, align 4
  store ptr %0, ptr %4, align 8, !tbaa !23
  store i32 %1, ptr %5, align 4, !tbaa !10
  store i32 %2, ptr %6, align 4, !tbaa !10
  %7 = load i32, ptr %6, align 4, !tbaa !10
  %8 = load ptr, ptr %4, align 8, !tbaa !23
  %9 = getelementptr inbounds nuw %struct.Vec_Int_t_, ptr %8, i32 0, i32 2
  %10 = load ptr, ptr %9, align 8, !tbaa !40
  %11 = load i32, ptr %5, align 4, !tbaa !10
  %12 = sext i32 %11 to i64
  %13 = getelementptr inbounds i32, ptr %10, i64 %12
  store i32 %7, ptr %13, align 4, !tbaa !10
  ret void
}

; Function Attrs: inlinehint nounwind uwtable
define internal i32 @Vec_IntEntry(ptr noundef %0, i32 noundef %1) #2 {
  %3 = alloca ptr, align 8
  %4 = alloca i32, align 4
  store ptr %0, ptr %3, align 8, !tbaa !23
  store i32 %1, ptr %4, align 4, !tbaa !10
  %5 = load ptr, ptr %3, align 8, !tbaa !23
  %6 = getelementptr inbounds nuw %struct.Vec_Int_t_, ptr %5, i32 0, i32 2
  %7 = load ptr, ptr %6, align 8, !tbaa !40
  %8 = load i32, ptr %4, align 4, !tbaa !10
  %9 = sext i32 %8 to i64
  %10 = getelementptr inbounds i32, ptr %7, i64 %9
  %11 = load i32, ptr %10, align 4, !tbaa !10
  ret i32 %11
}

; Function Attrs: inlinehint nounwind uwtable
define internal i32 @Vec_IntSize(ptr noundef %0) #2 {
  %2 = alloca ptr, align 8
  store ptr %0, ptr %2, align 8, !tbaa !23
  %3 = load ptr, ptr %2, align 8, !tbaa !23
  %4 = getelementptr inbounds nuw %struct.Vec_Int_t_, ptr %3, i32 0, i32 1
  %5 = load i32, ptr %4, align 4, !tbaa !37
  ret i32 %5
}

; Function Attrs: inlinehint nounwind uwtable
define internal i32 @Kit_WordCountOnes(i32 noundef %0) #2 {
  %2 = alloca i32, align 4
  store i32 %0, ptr %2, align 4, !tbaa !10
  %3 = load i32, ptr %2, align 4, !tbaa !10
  %4 = and i32 %3, 1431655765
  %5 = load i32, ptr %2, align 4, !tbaa !10
  %6 = lshr i32 %5, 1
  %7 = and i32 %6, 1431655765
  %8 = add i32 %4, %7
  store i32 %8, ptr %2, align 4, !tbaa !10
  %9 = load i32, ptr %2, align 4, !tbaa !10
  %10 = and i32 %9, 858993459
  %11 = load i32, ptr %2, align 4, !tbaa !10
  %12 = lshr i32 %11, 2
  %13 = and i32 %12, 858993459
  %14 = add i32 %10, %13
  store i32 %14, ptr %2, align 4, !tbaa !10
  %15 = load i32, ptr %2, align 4, !tbaa !10
  %16 = and i32 %15, 252645135
  %17 = load i32, ptr %2, align 4, !tbaa !10
  %18 = lshr i32 %17, 4
  %19 = and i32 %18, 252645135
  %20 = add i32 %16, %19
  store i32 %20, ptr %2, align 4, !tbaa !10
  %21 = load i32, ptr %2, align 4, !tbaa !10
  %22 = and i32 %21, 16711935
  %23 = load i32, ptr %2, align 4, !tbaa !10
  %24 = lshr i32 %23, 8
  %25 = and i32 %24, 16711935
  %26 = add i32 %22, %25
  store i32 %26, ptr %2, align 4, !tbaa !10
  %27 = load i32, ptr %2, align 4, !tbaa !10
  %28 = and i32 %27, 65535
  %29 = load i32, ptr %2, align 4, !tbaa !10
  %30 = lshr i32 %29, 16
  %31 = add i32 %28, %30
  ret i32 %31
}

; Function Attrs: inlinehint nounwind uwtable
define internal i32 @Abc_Lit2Var(i32 noundef %0) #2 {
  %2 = alloca i32, align 4
  store i32 %0, ptr %2, align 4, !tbaa !10
  %3 = load i32, ptr %2, align 4, !tbaa !10
  %4 = ashr i32 %3, 1
  ret i32 %4
}

; Function Attrs: inlinehint nounwind uwtable
define internal ptr @Kit_DsdNtkRoot(ptr noundef %0) #2 {
  %2 = alloca ptr, align 8
  store ptr %0, ptr %2, align 8, !tbaa !21
  %3 = load ptr, ptr %2, align 8, !tbaa !21
  %4 = load ptr, ptr %2, align 8, !tbaa !21
  %5 = getelementptr inbounds nuw %struct.Kit_DsdNtk_t_, ptr %4, i32 0, i32 3
  %6 = load i16, ptr %5, align 2, !tbaa !41
  %7 = zext i16 %6 to i32
  %8 = call i32 @Abc_Lit2Var(i32 noundef %7)
  %9 = call ptr @Kit_DsdNtkObj(ptr noundef %3, i32 noundef %8)
  ret ptr %9
}

; Function Attrs: inlinehint nounwind uwtable
define internal void @Vec_IntPush(ptr noundef %0, i32 noundef %1) #2 {
  %3 = alloca ptr, align 8
  %4 = alloca i32, align 4
  store ptr %0, ptr %3, align 8, !tbaa !23
  store i32 %1, ptr %4, align 4, !tbaa !10
  %5 = load ptr, ptr %3, align 8, !tbaa !23
  %6 = getelementptr inbounds nuw %struct.Vec_Int_t_, ptr %5, i32 0, i32 1
  %7 = load i32, ptr %6, align 4, !tbaa !37
  %8 = load ptr, ptr %3, align 8, !tbaa !23
  %9 = getelementptr inbounds nuw %struct.Vec_Int_t_, ptr %8, i32 0, i32 0
  %10 = load i32, ptr %9, align 8, !tbaa !39
  %11 = icmp eq i32 %7, %10
  br i1 %11, label %12, label %26

12:                                               ; preds = %2
  %13 = load ptr, ptr %3, align 8, !tbaa !23
  %14 = getelementptr inbounds nuw %struct.Vec_Int_t_, ptr %13, i32 0, i32 0
  %15 = load i32, ptr %14, align 8, !tbaa !39
  %16 = icmp slt i32 %15, 16
  br i1 %16, label %17, label %19

17:                                               ; preds = %12
  %18 = load ptr, ptr %3, align 8, !tbaa !23
  call void @Vec_IntGrow(ptr noundef %18, i32 noundef 16)
  br label %25

19:                                               ; preds = %12
  %20 = load ptr, ptr %3, align 8, !tbaa !23
  %21 = load ptr, ptr %3, align 8, !tbaa !23
  %22 = getelementptr inbounds nuw %struct.Vec_Int_t_, ptr %21, i32 0, i32 0
  %23 = load i32, ptr %22, align 8, !tbaa !39
  %24 = mul nsw i32 2, %23
  call void @Vec_IntGrow(ptr noundef %20, i32 noundef %24)
  br label %25

25:                                               ; preds = %19, %17
  br label %26

26:                                               ; preds = %25, %2
  %27 = load i32, ptr %4, align 4, !tbaa !10
  %28 = load ptr, ptr %3, align 8, !tbaa !23
  %29 = getelementptr inbounds nuw %struct.Vec_Int_t_, ptr %28, i32 0, i32 2
  %30 = load ptr, ptr %29, align 8, !tbaa !40
  %31 = load ptr, ptr %3, align 8, !tbaa !23
  %32 = getelementptr inbounds nuw %struct.Vec_Int_t_, ptr %31, i32 0, i32 1
  %33 = load i32, ptr %32, align 4, !tbaa !37
  %34 = add nsw i32 %33, 1
  store i32 %34, ptr %32, align 4, !tbaa !37
  %35 = sext i32 %33 to i64
  %36 = getelementptr inbounds i32, ptr %30, i64 %35
  store i32 %27, ptr %36, align 4, !tbaa !10
  ret void
}

; Function Attrs: inlinehint nounwind uwtable
define internal ptr @Vec_IntAlloc(i32 noundef %0) #2 {
  %2 = alloca i32, align 4
  %3 = alloca ptr, align 8
  store i32 %0, ptr %2, align 4, !tbaa !10
  call void @llvm.lifetime.start.p0(i64 8, ptr %3) #8
  %4 = call noalias ptr @malloc(i64 noundef 16) #9
  store ptr %4, ptr %3, align 8, !tbaa !23
  %5 = load i32, ptr %2, align 4, !tbaa !10
  %6 = icmp sgt i32 %5, 0
  br i1 %6, label %7, label %11

7:                                                ; preds = %1
  %8 = load i32, ptr %2, align 4, !tbaa !10
  %9 = icmp slt i32 %8, 16
  br i1 %9, label %10, label %11

10:                                               ; preds = %7
  store i32 16, ptr %2, align 4, !tbaa !10
  br label %11

11:                                               ; preds = %10, %7, %1
  %12 = load ptr, ptr %3, align 8, !tbaa !23
  %13 = getelementptr inbounds nuw %struct.Vec_Int_t_, ptr %12, i32 0, i32 1
  store i32 0, ptr %13, align 4, !tbaa !37
  %14 = load i32, ptr %2, align 4, !tbaa !10
  %15 = load ptr, ptr %3, align 8, !tbaa !23
  %16 = getelementptr inbounds nuw %struct.Vec_Int_t_, ptr %15, i32 0, i32 0
  store i32 %14, ptr %16, align 8, !tbaa !39
  %17 = load ptr, ptr %3, align 8, !tbaa !23
  %18 = getelementptr inbounds nuw %struct.Vec_Int_t_, ptr %17, i32 0, i32 0
  %19 = load i32, ptr %18, align 8, !tbaa !39
  %20 = icmp ne i32 %19, 0
  br i1 %20, label %21, label %28

21:                                               ; preds = %11
  %22 = load ptr, ptr %3, align 8, !tbaa !23
  %23 = getelementptr inbounds nuw %struct.Vec_Int_t_, ptr %22, i32 0, i32 0
  %24 = load i32, ptr %23, align 8, !tbaa !39
  %25 = sext i32 %24 to i64
  %26 = mul i64 4, %25
  %27 = call noalias ptr @malloc(i64 noundef %26) #9
  br label %29

28:                                               ; preds = %11
  br label %29

29:                                               ; preds = %28, %21
  %30 = phi ptr [ %27, %21 ], [ null, %28 ]
  %31 = load ptr, ptr %3, align 8, !tbaa !23
  %32 = getelementptr inbounds nuw %struct.Vec_Int_t_, ptr %31, i32 0, i32 2
  store ptr %30, ptr %32, align 8, !tbaa !40
  %33 = load ptr, ptr %3, align 8, !tbaa !23
  call void @llvm.lifetime.end.p0(i64 8, ptr %3) #8
  ret ptr %33
}

; Function Attrs: nounwind uwtable
define ptr @Lpk_ComputeBoundSets(ptr noundef %0, i32 noundef %1) #0 {
  %3 = alloca ptr, align 8
  %4 = alloca ptr, align 8
  %5 = alloca i32, align 4
  %6 = alloca ptr, align 8
  %7 = alloca i32, align 4
  %8 = alloca i32, align 4
  %9 = alloca i32, align 4
  %10 = alloca i32, align 4
  %11 = alloca i32, align 4
  store ptr %0, ptr %4, align 8, !tbaa !21
  store i32 %1, ptr %5, align 4, !tbaa !10
  call void @llvm.lifetime.start.p0(i64 8, ptr %6) #8
  call void @llvm.lifetime.start.p0(i64 4, ptr %7) #8
  call void @llvm.lifetime.start.p0(i64 4, ptr %8) #8
  call void @llvm.lifetime.start.p0(i64 4, ptr %9) #8
  call void @llvm.lifetime.start.p0(i64 4, ptr %10) #8
  %12 = call ptr @Vec_IntAlloc(i32 noundef 100)
  store ptr %12, ptr %6, align 8, !tbaa !23
  %13 = load ptr, ptr %6, align 8, !tbaa !23
  call void @Vec_IntPush(ptr noundef %13, i32 noundef 0)
  %14 = load ptr, ptr %4, align 8, !tbaa !21
  %15 = call ptr @Kit_DsdNtkRoot(ptr noundef %14)
  %16 = load i32, ptr %15, align 4
  %17 = lshr i32 %16, 6
  %18 = and i32 %17, 7
  %19 = icmp eq i32 %18, 1
  br i1 %19, label %20, label %22

20:                                               ; preds = %2
  %21 = load ptr, ptr %6, align 8, !tbaa !23
  store ptr %21, ptr %3, align 8
  store i32 1, ptr %11, align 4
  br label %91

22:                                               ; preds = %2
  %23 = load ptr, ptr %4, align 8, !tbaa !21
  %24 = call ptr @Kit_DsdNtkRoot(ptr noundef %23)
  %25 = load i32, ptr %24, align 4
  %26 = lshr i32 %25, 6
  %27 = and i32 %26, 7
  %28 = icmp eq i32 %27, 2
  br i1 %28, label %29, label %47

29:                                               ; preds = %22
  %30 = load ptr, ptr %4, align 8, !tbaa !21
  %31 = call ptr @Kit_DsdNtkRoot(ptr noundef %30)
  %32 = getelementptr inbounds nuw %struct.Kit_DsdObj_t_, ptr %31, i32 0, i32 1
  %33 = getelementptr inbounds [0 x i16], ptr %32, i64 0, i64 0
  %34 = load i16, ptr %33, align 4, !tbaa !27
  %35 = zext i16 %34 to i32
  %36 = call i32 @Abc_Lit2Var(i32 noundef %35)
  %37 = shl i32 1, %36
  store i32 %37, ptr %7, align 4, !tbaa !10
  %38 = load i32, ptr %7, align 4, !tbaa !10
  %39 = call i32 @Kit_WordCountOnes(i32 noundef %38)
  %40 = load i32, ptr %5, align 4, !tbaa !10
  %41 = icmp sle i32 %39, %40
  br i1 %41, label %42, label %45

42:                                               ; preds = %29
  %43 = load ptr, ptr %6, align 8, !tbaa !23
  %44 = load i32, ptr %7, align 4, !tbaa !10
  call void @Vec_IntPush(ptr noundef %43, i32 noundef %44)
  br label %45

45:                                               ; preds = %42, %29
  %46 = load ptr, ptr %6, align 8, !tbaa !23
  store ptr %46, ptr %3, align 8
  store i32 1, ptr %11, align 4
  br label %91

47:                                               ; preds = %22
  %48 = load ptr, ptr %4, align 8, !tbaa !21
  %49 = load ptr, ptr %4, align 8, !tbaa !21
  %50 = getelementptr inbounds nuw %struct.Kit_DsdNtk_t_, ptr %49, i32 0, i32 3
  %51 = load i16, ptr %50, align 2, !tbaa !41
  %52 = zext i16 %51 to i32
  %53 = load ptr, ptr %6, align 8, !tbaa !23
  %54 = load i32, ptr %5, align 4, !tbaa !10
  %55 = call i32 @Lpk_ComputeBoundSets_rec(ptr noundef %48, i32 noundef %52, ptr noundef %53, i32 noundef %54)
  store i32 %55, ptr %7, align 4, !tbaa !10
  %56 = load i32, ptr %7, align 4, !tbaa !10
  %57 = call i32 @Kit_WordCountOnes(i32 noundef %56)
  %58 = load i32, ptr %5, align 4, !tbaa !10
  %59 = icmp sle i32 %57, %58
  br i1 %59, label %60, label %63

60:                                               ; preds = %47
  %61 = load ptr, ptr %6, align 8, !tbaa !23
  %62 = load i32, ptr %7, align 4, !tbaa !10
  call void @Vec_IntPush(ptr noundef %61, i32 noundef %62)
  br label %63

63:                                               ; preds = %60, %47
  store i32 0, ptr %10, align 4, !tbaa !10
  br label %64

64:                                               ; preds = %86, %63
  %65 = load i32, ptr %10, align 4, !tbaa !10
  %66 = load ptr, ptr %6, align 8, !tbaa !23
  %67 = call i32 @Vec_IntSize(ptr noundef %66)
  %68 = icmp slt i32 %65, %67
  br i1 %68, label %69, label %73

69:                                               ; preds = %64
  %70 = load ptr, ptr %6, align 8, !tbaa !23
  %71 = load i32, ptr %10, align 4, !tbaa !10
  %72 = call i32 @Vec_IntEntry(ptr noundef %70, i32 noundef %71)
  store i32 %72, ptr %9, align 4, !tbaa !10
  br label %73

73:                                               ; preds = %69, %64
  %74 = phi i1 [ false, %64 ], [ true, %69 ]
  br i1 %74, label %75, label %89

75:                                               ; preds = %73
  %76 = load i32, ptr %9, align 4, !tbaa !10
  store i32 %76, ptr %8, align 4, !tbaa !10
  %77 = load ptr, ptr %6, align 8, !tbaa !23
  %78 = load i32, ptr %10, align 4, !tbaa !10
  %79 = load i32, ptr %8, align 4, !tbaa !10
  %80 = load i32, ptr %7, align 4, !tbaa !10
  %81 = load i32, ptr %8, align 4, !tbaa !10
  %82 = xor i32 %81, -1
  %83 = and i32 %80, %82
  %84 = shl i32 %83, 16
  %85 = or i32 %79, %84
  call void @Vec_IntWriteEntry(ptr noundef %77, i32 noundef %78, i32 noundef %85)
  br label %86

86:                                               ; preds = %75
  %87 = load i32, ptr %10, align 4, !tbaa !10
  %88 = add nsw i32 %87, 1
  store i32 %88, ptr %10, align 4, !tbaa !10
  br label %64, !llvm.loop !42

89:                                               ; preds = %73
  %90 = load ptr, ptr %6, align 8, !tbaa !23
  store ptr %90, ptr %3, align 8
  store i32 1, ptr %11, align 4
  br label %91

91:                                               ; preds = %89, %45, %20
  call void @llvm.lifetime.end.p0(i64 4, ptr %10) #8
  call void @llvm.lifetime.end.p0(i64 4, ptr %9) #8
  call void @llvm.lifetime.end.p0(i64 4, ptr %8) #8
  call void @llvm.lifetime.end.p0(i64 4, ptr %7) #8
  call void @llvm.lifetime.end.p0(i64 8, ptr %6) #8
  %92 = load ptr, ptr %3, align 8
  ret ptr %92
}