; Function Attrs: nounwind uwtable
define noundef ptr @Lpk_ComputeBoundSets(ptr noundef %0, i32 noundef %1) local_unnamed_addr #0 {
Vec_IntPush.exit:
  %2 = tail call noalias dereferenceable_or_null(16) ptr @malloc(i64 noundef 16) #12
  %3 = getelementptr inbounds nuw i8, ptr %2, i64 4
  store i32 100, ptr %2, align 8, !tbaa !29
  %4 = tail call noalias dereferenceable_or_null(400) ptr @malloc(i64 noundef 400) #12
  %5 = getelementptr inbounds nuw i8, ptr %2, i64 8
  store ptr %4, ptr %5, align 8, !tbaa !30
  store i32 1, ptr %3, align 4, !tbaa !27
  store i32 0, ptr %4, align 4, !tbaa !12
  %6 = getelementptr inbounds nuw i8, ptr %0, i64 6
  %7 = load i16, ptr %6, align 2, !tbaa !33
  %8 = lshr i16 %7, 1
  %9 = load i16, ptr %0, align 8, !tbaa !17
  %10 = icmp uge i16 %8, %9
  tail call void @llvm.assume(i1 %10)
  %11 = getelementptr inbounds nuw i8, ptr %0, i64 24
  %12 = load ptr, ptr %11, align 8, !tbaa !21
  %narrow.i = sub nuw nsw i16 %8, %9
  %13 = zext nneg i16 %narrow.i to i64
  %14 = getelementptr inbounds nuw ptr, ptr %12, i64 %13
  %15 = load ptr, ptr %14, align 8, !tbaa !22
  %16 = load i32, ptr %15, align 4
  %17 = and i32 %16, 448
  switch i32 %17, label %43 [
    i32 64, label %.critedge
    i32 128, label %Kit_DsdNtkRoot.exit37
  ]

Kit_DsdNtkRoot.exit37:                            ; preds = %Vec_IntPush.exit
  %18 = getelementptr inbounds nuw i8, ptr %15, i64 4
  %19 = load i16, ptr %18, align 4, !tbaa !24
  %20 = lshr i16 %19, 1
  %21 = zext nneg i16 %20 to i32
  %22 = shl nuw i32 1, %21
  %23 = and i32 %22, 1431655765
  %24 = lshr i32 %22, 1
  %25 = and i32 %24, 1431655765
  %26 = add nuw i32 %25, %23
  %27 = and i32 %26, 858993459
  %28 = lshr i32 %26, 2
  %29 = and i32 %28, 858993459
  %30 = add nuw nsw i32 %29, %27
  %31 = and i32 %30, 117901063
  %32 = lshr i32 %30, 4
  %33 = and i32 %32, 117901063
  %34 = add nuw nsw i32 %33, %31
  %35 = and i32 %34, 983055
  %36 = lshr i32 %34, 8
  %37 = and i32 %36, 983055
  %38 = add nuw nsw i32 %37, %35
  %39 = and i32 %38, 31
  %40 = lshr i32 %38, 16
  %41 = add nuw nsw i32 %39, %40
  %.not31 = icmp sgt i32 %41, %1
  br i1 %.not31, label %.critedge, label %Vec_IntPush.exit44

Vec_IntPush.exit44:                               ; preds = %Kit_DsdNtkRoot.exit37
  store i32 2, ptr %3, align 4, !tbaa !27
  %42 = getelementptr inbounds nuw i8, ptr %4, i64 4
  store i32 %22, ptr %42, align 4, !tbaa !12
  br label %.critedge

43:                                               ; preds = %Vec_IntPush.exit
  %44 = zext i16 %7 to i32
  %45 = tail call i32 @Lpk_ComputeBoundSets_rec(ptr noundef nonnull %0, i32 noundef %44, ptr noundef nonnull %2, i32 noundef %1)
  %46 = and i32 %45, 1431655765
  %47 = lshr i32 %45, 1
  %48 = and i32 %47, 1431655765
  %49 = add nuw i32 %48, %46
  %50 = and i32 %49, 858993459
  %51 = lshr i32 %49, 2
  %52 = and i32 %51, 858993459
  %53 = add nuw nsw i32 %52, %50
  %54 = and i32 %53, 117901063
  %55 = lshr i32 %53, 4
  %56 = and i32 %55, 117901063
  %57 = add nuw nsw i32 %56, %54
  %58 = and i32 %57, 983055
  %59 = lshr i32 %57, 8
  %60 = and i32 %59, 983055
  %61 = add nuw nsw i32 %60, %58
  %62 = and i32 %61, 31
  %63 = lshr i32 %61, 16
  %64 = add nuw nsw i32 %62, %63
  %.not = icmp sgt i32 %64, %1
  br i1 %.not, label %94, label %65

65:                                               ; preds = %43
  %66 = load i32, ptr %3, align 4, !tbaa !27
  %67 = load i32, ptr %2, align 8, !tbaa !29
  %68 = icmp eq i32 %66, %67
  br i1 %68, label %69, label %.Vec_IntGrow.exit10_crit_edge.i45

.Vec_IntGrow.exit10_crit_edge.i45:                ; preds = %65
  %.pre.i47 = load ptr, ptr %5, align 8, !tbaa !30
  br label %Vec_IntPush.exit51

69:                                               ; preds = %65
  %70 = icmp slt i32 %66, 16
  br i1 %70, label %71, label %78

71:                                               ; preds = %69
  %72 = load ptr, ptr %5, align 8, !tbaa !30
  %.not9.i.i49 = icmp eq ptr %72, null
  br i1 %.not9.i.i49, label %75, label %73

73:                                               ; preds = %71
  %74 = tail call dereferenceable_or_null(64) ptr @realloc(ptr noundef nonnull %72, i64 noundef 64) #11
  br label %Vec_IntGrow.exit.i50

75:                                               ; preds = %71
  %76 = tail call noalias dereferenceable_or_null(64) ptr @malloc(i64 noundef 64) #12
  br label %Vec_IntGrow.exit.i50

Vec_IntGrow.exit.i50:                             ; preds = %75, %73
  %77 = phi ptr [ %74, %73 ], [ %76, %75 ]
  store ptr %77, ptr %5, align 8, !tbaa !30
  store i32 16, ptr %2, align 8, !tbaa !29
  br label %Vec_IntPush.exit51

78:                                               ; preds = %69
  %79 = shl nuw nsw i32 %66, 1
  %80 = load ptr, ptr %5, align 8, !tbaa !30
  %.not9.i9.i48 = icmp eq ptr %80, null
  %81 = zext nneg i32 %79 to i64
  %82 = shl nuw nsw i64 %81, 2
  br i1 %.not9.i9.i48, label %85, label %83

83:                                               ; preds = %78
  %84 = tail call ptr @realloc(ptr noundef nonnull %80, i64 noundef %82) #11
  br label %87

85:                                               ; preds = %78
  %86 = tail call noalias ptr @malloc(i64 noundef %82) #12
  br label %87

87:                                               ; preds = %85, %83
  %88 = phi ptr [ %84, %83 ], [ %86, %85 ]
  store ptr %88, ptr %5, align 8, !tbaa !30
  store i32 %79, ptr %2, align 8, !tbaa !29
  br label %Vec_IntPush.exit51

Vec_IntPush.exit51:                               ; preds = %.Vec_IntGrow.exit10_crit_edge.i45, %Vec_IntGrow.exit.i50, %87
  %89 = phi ptr [ %.pre.i47, %.Vec_IntGrow.exit10_crit_edge.i45 ], [ %88, %87 ], [ %77, %Vec_IntGrow.exit.i50 ]
  %90 = load i32, ptr %3, align 4, !tbaa !27
  %91 = add nsw i32 %90, 1
  store i32 %91, ptr %3, align 4, !tbaa !27
  %92 = sext i32 %90 to i64
  %93 = getelementptr inbounds i32, ptr %89, i64 %92
  store i32 %45, ptr %93, align 4, !tbaa !12
  br label %94

94:                                               ; preds = %Vec_IntPush.exit51, %43
  %.val53 = load i32, ptr %3, align 4, !tbaa !27
  %95 = icmp sgt i32 %.val53, 0
  br i1 %95, label %.lr.ph, label %.critedge

.lr.ph:                                           ; preds = %94
  %.val32 = load ptr, ptr %5, align 8, !tbaa !30
  br label %96

96:                                               ; preds = %.lr.ph, %96
  %indvars.iv = phi i64 [ 0, %.lr.ph ], [ %indvars.iv.next, %96 ]
  %97 = getelementptr inbounds nuw i32, ptr %.val32, i64 %indvars.iv
  %98 = load i32, ptr %97, align 4, !tbaa !12
  %99 = xor i32 %98, -1
  %100 = and i32 %45, %99
  %101 = shl i32 %100, 16
  %102 = or i32 %101, %98
  store i32 %102, ptr %97, align 4, !tbaa !12
  %indvars.iv.next = add nuw nsw i64 %indvars.iv, 1
  %.val = load i32, ptr %3, align 4, !tbaa !27
  %103 = sext i32 %.val to i64
  %104 = icmp slt i64 %indvars.iv.next, %103
  br i1 %104, label %96, label %.critedge, !llvm.loop !34

.critedge:                                        ; preds = %96, %Vec_IntPush.exit, %94, %Kit_DsdNtkRoot.exit37, %Vec_IntPush.exit44
  ret ptr %2
}